target datalayout = "e-m:e-p270:32:32-p271:32:32-p272:64:64-i64:64-i128:128-f80:128-n8:16:32:64-S128"
target triple = "x86_64-pc-linux-gnu"

@.str.18 = private unnamed_addr constant [4 x i8] c"&st\00", align 1
@.str.22 = private unnamed_addr constant [11 x i8] c"&st; &sopb\00", align 1

; Function Attrs: nounwind uwtable
define void @Gia_ManPerformFlow(i32 noundef %0, i32 noundef %1, i32 noundef %2, i32 noundef %3, i32 noundef %4, i32 noundef %5, i32 noundef %6, i32 noundef %7) #0 {
  %9 = alloca i32, align 4
  %10 = alloca i32, align 4
  %11 = alloca i32, align 4
  %12 = alloca i32, align 4
  %13 = alloca i32, align 4
  %14 = alloca i32, align 4
  %15 = alloca i32, align 4
  %16 = alloca i32, align 4
  store i32 %0, ptr %9, align 4
  store i32 %1, ptr %10, align 4
  store i32 %2, ptr %11, align 4
  store i32 %3, ptr %12, align 4
  store i32 %4, ptr %13, align 4
  store i32 %5, ptr %14, align 4
  store i32 %6, ptr %15, align 4
  store i32 %7, ptr %16, align 4
  %17 = load i32, ptr %9, align 4
  %18 = icmp ne i32 %17, 0
  br i1 %18, label %19, label %22

19:                                               ; preds = %8
  %20 = call ptr (...) @Abc_FrameGetGlobalFrame()
  %21 = call i32 @Cmd_CommandExecute(ptr noundef %20, ptr noundef @.str.18)
  br label %22

22:                                               ; preds = %19, %8
  %23 = load i32, ptr %9, align 4
  %24 = load i32, ptr %10, align 4
  %25 = load i32, ptr %11, align 4
  %26 = load i32, ptr %12, align 4
  %27 = load i32, ptr %13, align 4
  %28 = load i32, ptr %14, align 4
  %29 = load i32, ptr %15, align 4
  %30 = load i32, ptr %16, align 4
  call void @Gia_ManPerformRound(i32 noundef %23, i32 noundef %24, i32 noundef %25, i32 noundef %26, i32 noundef %27, i32 noundef %28, i32 noundef %29, i32 noundef %30)
  %31 = call ptr (...) @Abc_FrameGetGlobalFrame()
  %32 = call i32 @Cmd_CommandExecute(ptr noundef %31, ptr noundef @.str.22)
  %33 = load i32, ptr %9, align 4
  %34 = load i32, ptr %10, align 4
  %35 = load i32, ptr %11, align 4
  %36 = load i32, ptr %12, align 4
  %37 = load i32, ptr %13, align 4
  %38 = load i32, ptr %14, align 4
  %39 = load i32, ptr %15, align 4
  %40 = load i32, ptr %16, align 4
  call void @Gia_ManPerformRound(i32 noundef %33, i32 noundef %34, i32 noundef %35, i32 noundef %36, i32 noundef %37, i32 noundef %38, i32 noundef %39, i32 noundef %40)
  ret void
}