; Function Attrs: nounwind uwtable
define void @Gia_ManPerformFlow(i32 noundef %0, i32 noundef %1, i32 noundef %2, i32 noundef %3, i32 noundef %4, i32 noundef %5, i32 noundef %6, i32 noundef %7) local_unnamed_addr #0 {
  %.not = icmp eq i32 %0, 0
  br i1 %.not, label %.split, label %.split18

.split18:                                         ; preds = %8
  %9 = tail call ptr (...) @Abc_FrameGetGlobalFrame() #15
  %10 = tail call i32 @Cmd_CommandExecute(ptr noundef %9, ptr noundef nonnull @.str.18) #15
  br label %.split

.split:                                           ; preds = %8, %.split18
  tail call void @Gia_ManPerformRound(i32 poison, i32 noundef %1, i32 poison, i32 noundef %3, i32 noundef %4, i32 noundef %5, i32 noundef %6, i32 noundef %7)
  %11 = tail call ptr (...) @Abc_FrameGetGlobalFrame() #15
  %12 = tail call i32 @Cmd_CommandExecute(ptr noundef %11, ptr noundef nonnull @.str.22) #15
  tail call void @Gia_ManPerformRound(i32 poison, i32 noundef %1, i32 poison, i32 noundef %3, i32 noundef %4, i32 noundef %5, i32 noundef %6, i32 noundef %7)
  ret void
}